; Function Attrs: mustprogress nounwind uwtable
define dso_local noundef ptr @_ZN4node21GetCurrentEnvironmentEN2v85LocalINS0_7ContextEEE(ptr %context.coerce) local_unnamed_addr #3 {
entry:
  %cmp.i.i.i = icmp eq ptr %context.coerce, null
  br i1 %cmp.i.i.i, label %_ZN4node11Environment10GetCurrentEN2v85LocalINS1_7ContextEEE.exit, label %if.end.i.i

if.end.i.i:                                       ; preds = %entry
  %call5.i.i = tail call noundef i32 @_ZN2v87Context29GetNumberOfEmbedderDataFieldsEv(ptr noundef nonnull align 1 dereferenceable(1) %context.coerce) #12
  %cmp.i.i = icmp ult i32 %call5.i.i, 40
  br i1 %cmp.i.i, label %_ZN4node11Environment10GetCurrentEN2v85LocalINS1_7ContextEEE.exit, label %_ZN4node18ContextEmbedderTag13IsNodeContextEN2v85LocalINS1_7ContextEEE.exit.i

_ZN4node18ContextEmbedderTag13IsNodeContextEN2v85LocalINS1_7ContextEEE.exit.i: ; preds = %if.end.i.i
  %0 = load i64, ptr %context.coerce, align 8
  %sub.i.i.i.i = add i64 %0, 47
  %1 = inttoptr i64 %sub.i.i.i.i to ptr
  %2 = load i64, ptr %1, align 8
  %sub.i.i29.i.i = add i64 %2, 327
  %3 = inttoptr i64 %sub.i.i29.i.i to ptr
  %4 = load i64, ptr %3, align 8
  %5 = inttoptr i64 %4 to ptr
  %6 = load ptr, ptr @_ZN4node18ContextEmbedderTag18kNodeContextTagPtrE, align 8
  %cmp12.not.i.i = icmp eq ptr %6, %5
  br i1 %cmp12.not.i.i, label %if.end.i, label %_ZN4node11Environment10GetCurrentEN2v85LocalINS1_7ContextEEE.exit

if.end.i:                                         ; preds = %_ZN4node18ContextEmbedderTag13IsNodeContextEN2v85LocalINS1_7ContextEEE.exit.i
  %sub.i.i17.i = add i64 %2, 271
  %7 = inttoptr i64 %sub.i.i17.i to ptr
  %8 = load i64, ptr %7, align 8
  %9 = inttoptr i64 %8 to ptr
  br label %_ZN4node11Environment10GetCurrentEN2v85LocalINS1_7ContextEEE.exit

_ZN4node11Environment10GetCurrentEN2v85LocalINS1_7ContextEEE.exit: ; preds = %entry, %if.end.i.i, %_ZN4node18ContextEmbedderTag13IsNodeContextEN2v85LocalINS1_7ContextEEE.exit.i, %if.end.i
  %retval.0.i = phi ptr [ %9, %if.end.i ], [ null, %_ZN4node18ContextEmbedderTag13IsNodeContextEN2v85LocalINS1_7ContextEEE.exit.i ], [ null, %entry ], [ null, %if.end.i.i ]
  ret ptr %retval.0.i
}